Certificate:
    Data:
        Version: 3 (0x2)
        Serial Number: 47 (0x2f)
        Signature Algorithm: sha256WithRSAEncryption
        Issuer: C=US, O=Google, OU=Enterprise, CN=Enterprise Subordinate CA
        Validity
            Not Before: Oct 31 14:53:15 2022 GMT
            Not After : Feb  7 14:53:15 2025 GMT
        Subject: C=US, O=Google, OU=Enterprise, CN=attestor.esodemoapp2.com
        Subject Public Key Info:
            Public Key Algorithm: rsaEncryption
                Public-Key: (2048 bit)
                Modulus:
                    00:d4:22:ed:b8:17:fb:48:6c:1d:9a:00:cd:78:6d:
                    68:8d:b0:ad:b4:24:6c:bb:80:3e:66:65:20:f5:12:
                    93:24:5a:04:f7:66:b1:85:c3:22:9c:fb:87:56:32:
                    d5:9c:b1:10:92:98:8c:1d:6b:2c:86:62:55:8b:a5:
                    ae:20:30:45:a7:e4:2a:45:45:02:62:f3:4f:b0:2e:
                    e9:6c:c4:4d:7c:29:63:53:df:a0:fd:61:15:6a:2a:
                    b6:b2:f4:07:93:7d:b3:4f:4e:6e:ec:65:68:5c:81:
                    0c:19:bc:04:66:62:6f:91:b3:0d:e9:50:97:19:b2:
                    18:07:7f:51:b0:29:e9:fe:8a:b3:a4:45:60:22:68:
                    5a:9a:d3:ad:56:df:cf:89:af:0a:94:08:2b:4e:8a:
                    11:bf:a3:9b:88:85:27:e9:0c:56:b6:a3:a3:df:33:
                    e2:a5:49:52:5a:0b:7c:2b:1a:52:52:8f:50:cf:93:
                    06:7b:8d:3d:7a:7d:f4:d2:7c:7b:8e:15:6b:fb:c6:
                    f2:c1:ac:cb:ac:57:82:f3:6e:1e:b5:e2:13:f5:97:
                    59:2d:25:3c:18:08:80:c1:9a:24:9a:27:ea:57:19:
                    5b:da:ee:40:d9:a3:58:f5:e1:95:d1:64:de:6b:f6:
                    98:f6:48:f3:3d:76:2a:47:9d:1e:12:fe:a8:fc:6b:
                    2c:f5
                Exponent: 65537 (0x10001)
        X509v3 extensions:
            X509v3 Key Usage: critical
                Digital Signature
            X509v3 Basic Constraints: 
                CA:FALSE
            X509v3 Extended Key Usage: 
                TLS Web Server Authentication
            X509v3 Subject Key Identifier: 
                2C:87:B7:52:BD:95:17:0B:75:37:F8:D6:F2:95:44:CE:7D:14:06:2E
            X509v3 Authority Key Identifier: 
                B7:BA:B0:02:A1:E7:BE:34:C6:C1:05:5C:66:78:E5:BB:53:5D:A1:54
            Authority Information Access: 
                CA Issuers - URI:http://pki.esodemoapp2.com/ca/tls-ca.cer
            X509v3 CRL Distribution Points: 
                Full Name:
                  URI:http://pki.esodemoapp2.com/ca/tls-ca.crl
            X509v3 Subject Alternative Name: 
                DNS:attestor.esodemoapp2.com
    Signature Algorithm: sha256WithRSAEncryption
    Signature Value:
        95:98:dc:79:e5:1e:15:a8:f4:69:b0:ec:c3:1c:ff:4a:cd:e2:
        10:78:5d:c4:4b:d3:95:9d:ab:13:38:d2:10:66:13:dc:c0:dd:
        8f:f3:a3:77:1d:5a:a1:5c:66:7e:76:af:b4:bf:aa:61:27:76:
        d5:fb:2c:ae:f3:09:e3:68:f5:c0:a8:6f:96:a9:86:0b:22:c5:
        f5:35:3b:4a:32:28:b1:70:67:23:1a:4a:58:a4:b2:67:02:42:
        6d:c5:d6:5d:23:35:ff:03:67:24:54:3a:2d:16:fd:09:4a:ed:
        b3:f5:3d:94:ed:06:6a:cb:2d:44:7a:51:8c:7a:80:ab:aa:16:
        b9:a6:e0:d0:dd:4d:b2:c4:89:94:e5:14:c3:48:fd:a2:db:37:
        5a:3d:6e:34:c3:27:80:93:6b:60:35:bf:e9:65:d9:1a:1b:5c:
        3b:f9:8d:86:50:c3:9f:88:17:d3:83:81:61:bb:53:27:04:2b:
        e0:d7:32:39:9f:55:f3:64:0d:d2:35:0f:b7:c6:3f:5e:20:63:
        15:fd:1a:6c:14:d5:3d:08:7e:c9:a3:b3:39:97:a8:93:93:34:
        8a:29:d6:80:ae:ac:7d:20:f1:08:37:c7:1b:6d:85:18:72:e6:
        ab:29:28:22:d3:7a:fc:43:ed:01:d8:cc:fc:f8:c0:85:86:0f:
        f3:ba:63:39
-----BEGIN CERTIFICATE-----
MIIERDCCAyygAwIBAgIBLzANBgkqhkiG9w0BAQsFADBXMQswCQYDVQQGEwJVUzEP
MA0GA1UECgwGR29vZ2xlMRMwEQYDVQQLDApFbnRlcnByaXNlMSIwIAYDVQQDDBlF
bnRlcnByaXNlIFN1Ym9yZGluYXRlIENBMB4XDTIyMTAzMTE0NTMxNVoXDTI1MDIw
NzE0NTMxNVowVjELMAkGA1UEBhMCVVMxDzANBgNVBAoMBkdvb2dsZTETMBEGA1UE
CwwKRW50ZXJwcmlzZTEhMB8GA1UEAwwYYXR0ZXN0b3IuZXNvZGVtb2FwcDIuY29t
MIIBIjANBgkqhkiG9w0BAQEFAAOCAQ8AMIIBCgKCAQEA1CLtuBf7SGwdmgDNeG1o
jbCttCRsu4A+ZmUg9RKTJFoE92axhcMinPuHVjLVnLEQkpiMHWsshmJVi6WuIDBF
p+QqRUUCYvNPsC7pbMRNfCljU9+g/WEVaiq2svQHk32zT05u7GVoXIEMGbwEZmJv
kbMN6VCXGbIYB39RsCnp/oqzpEVgImhamtOtVt/Pia8KlAgrTooRv6ObiIUn6QxW
tqOj3zPipUlSWgt8KxpSUo9Qz5MGe409en300nx7jhVr+8bywazLrFeC824eteIT
9ZdZLSU8GAiAwZokmifqVxlb2u5A2aNY9eGV0WTea/aY9kjzPXYqR50eEv6o/Gss
9QIDAQABo4IBGjCCARYwDgYDVR0PAQH/BAQDAgeAMAkGA1UdEwQCMAAwEwYDVR0l
BAwwCgYIKwYBBQUHAwEwHQYDVR0OBBYEFCyHt1K9lRcLdTf41vKVRM59FAYuMB8G
A1UdIwQYMBaAFLe6sAKh5740xsEFXGZ45btTXaFUMEQGCCsGAQUFBwEBBDgwNjA0
BggrBgEFBQcwAoYoaHR0cDovL3BraS5lc29kZW1vYXBwMi5jb20vY2EvdGxzLWNh
LmNlcjA5BgNVHR8EMjAwMC6gLKAqhihodHRwOi8vcGtpLmVzb2RlbW9hcHAyLmNv
bS9jYS90bHMtY2EuY3JsMCMGA1UdEQQcMBqCGGF0dGVzdG9yLmVzb2RlbW9hcHAy
LmNvbTANBgkqhkiG9w0BAQsFAAOCAQEAlZjceeUeFaj0abDswxz/Ss3iEHhdxEvT
lZ2rEzjSEGYT3MDdj/Ojdx1aoVxmfnavtL+qYSd21fssrvMJ42j1wKhvlqmGCyLF
9TU7SjIosXBnIxpKWKSyZwJCbcXWXSM1/wNnJFQ6LRb9CUrts/U9lO0GasstRHpR
jHqAq6oWuabg0N1NssSJlOUUw0j9ots3Wj1uNMMngJNrYDW/6WXZGhtcO/mNhlDD
n4gX04OBYbtTJwQr4NcyOZ9V82QN0jUPt8Y/XiBjFf0abBTVPQh+yaOzOZeok5M0
iinWgK6sfSDxCDfHG22FGHLmqykoItN6/EPtAdjM/PjAhYYP87pjOQ==
-----END CERTIFICATE-----
