Certificate:
    Data:
        Version: 3 (0x2)
        Serial Number: 36 (0x24)
        Signature Algorithm: sha256WithRSAEncryption
        Issuer: C=US, O=Google, OU=Enterprise, CN=Enterprise Subordinate CA
        Validity
            Not Before: Sep 11 12:39:08 2022 GMT
            Not After : Dec 19 12:39:08 2024 GMT
        Subject: C=US, O=Google, OU=Enterprise, CN=verify.esodemoapp2.com
        Subject Public Key Info:
            Public Key Algorithm: rsaEncryption
                Public-Key: (2048 bit)
                Modulus:
                    00:c1:cd:5f:74:01:98:cf:74:ec:1d:3b:02:9f:91:
                    e9:2b:94:8b:af:b2:0c:81:84:89:20:ef:f3:76:b8:
                    31:b3:ed:89:a4:79:8e:e0:e5:32:92:65:dd:26:95:
                    25:fa:e0:0e:42:2d:ba:06:a9:10:f1:de:b1:cf:a6:
                    69:c8:e7:88:31:d8:19:73:f4:c8:a8:b4:ac:07:e9:
                    76:8b:ad:29:e1:4c:ea:e3:4c:30:32:a5:46:e8:bc:
                    5d:8e:af:62:19:be:53:dc:91:27:88:54:5e:35:da:
                    c0:db:91:98:7a:95:44:2c:a4:ca:4a:b9:1f:85:6f:
                    69:b1:a0:e8:ff:ea:a9:7d:c2:c5:b4:a2:81:2e:4b:
                    07:2e:98:ed:8e:f8:da:0d:cb:d6:a2:b8:a8:a3:24:
                    14:10:41:35:5f:a1:7d:31:17:f6:92:1e:2b:a2:97:
                    a2:53:fe:65:57:72:30:a2:fa:af:93:56:5c:5d:4a:
                    f7:f7:b8:de:ab:31:1e:65:ca:93:d3:f6:09:68:1c:
                    06:b7:ec:01:89:07:e3:ab:e5:4c:d2:52:5b:39:be:
                    5d:fc:45:ae:d5:95:c2:a0:63:14:a8:db:85:30:40:
                    3d:a4:07:69:de:e5:56:33:eb:8b:13:93:5d:9f:a6:
                    b6:80:8a:2c:10:91:a4:e3:4c:5e:57:83:68:32:d6:
                    ac:79
                Exponent: 65537 (0x10001)
        X509v3 extensions:
            X509v3 Key Usage: critical
                Digital Signature
            X509v3 Basic Constraints: 
                CA:FALSE
            X509v3 Extended Key Usage: 
                TLS Web Server Authentication
            X509v3 Subject Key Identifier: 
                98:27:11:53:7A:A6:12:14:C1:71:0A:1E:6F:A1:0A:50:6B:50:90:DD
            X509v3 Authority Key Identifier: 
                B7:BA:B0:02:A1:E7:BE:34:C6:C1:05:5C:66:78:E5:BB:53:5D:A1:54
            Authority Information Access: 
                CA Issuers - URI:http://pki.esodemoapp2.com/ca/tls-ca.cer
            X509v3 CRL Distribution Points: 
                Full Name:
                  URI:http://pki.esodemoapp2.com/ca/tls-ca.crl
            X509v3 Subject Alternative Name: 
                DNS:verify.esodemoapp2.com
    Signature Algorithm: sha256WithRSAEncryption
    Signature Value:
        47:9a:09:59:9d:00:3e:ff:f5:1a:0a:10:26:31:d1:9c:e8:ca:
        c1:10:b9:69:5f:e3:88:1d:9b:ab:89:3d:ba:ea:6c:86:9a:08:
        0c:b5:77:4e:59:fb:da:46:fc:be:ce:bb:4b:b4:08:50:71:20:
        dc:43:f9:75:9c:dc:01:b8:0e:83:f2:94:5d:3c:04:0d:03:bc:
        12:a1:a1:ab:9f:31:d9:f7:5a:b2:92:de:c3:28:ec:e8:ce:11:
        64:07:e6:9b:f1:c6:3f:56:6b:dc:af:4a:4a:28:1b:8d:e9:39:
        f6:b3:e1:e4:51:e2:d3:ad:f6:45:e9:fe:1b:2e:81:f2:9d:99:
        23:ef:cc:b6:fc:95:fb:5c:6c:c2:dc:b3:3e:8d:28:8a:ba:30:
        d1:5d:26:d8:8a:1d:af:88:df:34:9b:c8:12:dd:3c:c7:70:24:
        56:c2:0a:c6:f7:c0:cc:8e:1f:2e:c0:35:bb:88:d0:7b:3b:a4:
        0c:69:67:87:2c:73:fc:24:08:48:98:b0:a2:97:c6:ab:b8:58:
        79:64:10:0b:8c:44:21:4e:21:77:5b:8b:f2:dc:4a:87:61:4c:
        f4:95:cd:ad:26:1e:30:3d:99:a4:44:49:3f:14:96:04:0b:53:
        8b:a5:ed:18:b9:c8:31:86:38:92:01:24:e2:04:2d:fb:e5:d8:
        55:4c:2e:f6
-----BEGIN CERTIFICATE-----
MIIEQDCCAyigAwIBAgIBJDANBgkqhkiG9w0BAQsFADBXMQswCQYDVQQGEwJVUzEP
MA0GA1UECgwGR29vZ2xlMRMwEQYDVQQLDApFbnRlcnByaXNlMSIwIAYDVQQDDBlF
bnRlcnByaXNlIFN1Ym9yZGluYXRlIENBMB4XDTIyMDkxMTEyMzkwOFoXDTI0MTIx
OTEyMzkwOFowVDELMAkGA1UEBhMCVVMxDzANBgNVBAoMBkdvb2dsZTETMBEGA1UE
CwwKRW50ZXJwcmlzZTEfMB0GA1UEAwwWdmVyaWZ5LmVzb2RlbW9hcHAyLmNvbTCC
ASIwDQYJKoZIhvcNAQEBBQADggEPADCCAQoCggEBAMHNX3QBmM907B07Ap+R6SuU
i6+yDIGEiSDv83a4MbPtiaR5juDlMpJl3SaVJfrgDkItugapEPHesc+macjniDHY
GXP0yKi0rAfpdoutKeFM6uNMMDKlRui8XY6vYhm+U9yRJ4hUXjXawNuRmHqVRCyk
ykq5H4VvabGg6P/qqX3CxbSigS5LBy6Y7Y742g3L1qK4qKMkFBBBNV+hfTEX9pIe
K6KXolP+ZVdyMKL6r5NWXF1K9/e43qsxHmXKk9P2CWgcBrfsAYkH46vlTNJSWzm+
XfxFrtWVwqBjFKjbhTBAPaQHad7lVjPrixOTXZ+mtoCKLBCRpONMXleDaDLWrHkC
AwEAAaOCARgwggEUMA4GA1UdDwEB/wQEAwIHgDAJBgNVHRMEAjAAMBMGA1UdJQQM
MAoGCCsGAQUFBwMBMB0GA1UdDgQWBBSYJxFTeqYSFMFxCh5voQpQa1CQ3TAfBgNV
HSMEGDAWgBS3urACoee+NMbBBVxmeOW7U12hVDBEBggrBgEFBQcBAQQ4MDYwNAYI
KwYBBQUHMAKGKGh0dHA6Ly9wa2kuZXNvZGVtb2FwcDIuY29tL2NhL3Rscy1jYS5j
ZXIwOQYDVR0fBDIwMDAuoCygKoYoaHR0cDovL3BraS5lc29kZW1vYXBwMi5jb20v
Y2EvdGxzLWNhLmNybDAhBgNVHREEGjAYghZ2ZXJpZnkuZXNvZGVtb2FwcDIuY29t
MA0GCSqGSIb3DQEBCwUAA4IBAQBHmglZnQA+//UaChAmMdGc6MrBELlpX+OIHZur
iT266myGmggMtXdOWfvaRvy+zrtLtAhQcSDcQ/l1nNwBuA6D8pRdPAQNA7wSoaGr
nzHZ91qykt7DKOzozhFkB+ab8cY/Vmvcr0pKKBuN6Tn2s+HkUeLTrfZF6f4bLoHy
nZkj78y2/JX7XGzC3LM+jSiKujDRXSbYih2viN80m8gS3TzHcCRWwgrG98DMjh8u
wDW7iNB7O6QMaWeHLHP8JAhImLCil8aruFh5ZBALjEQhTiF3W4vy3EqHYUz0lc2t
Jh4wPZmkREk/FJYEC1OLpe0YucgxhjiSASTiBC375dhVTC72
-----END CERTIFICATE-----
