Certificate:
    Data:
        Version: 3 (0x2)
        Serial Number: 57 (0x39)
        Signature Algorithm: sha1WithRSAEncryption
        Issuer: C=US, O=Google, OU=Enterprise, CN=Enterprise Subordinate CA
        Validity
            Not Before: Oct 27 01:37:32 2021 GMT
            Not After : Apr 19 01:37:32 2027 GMT
        Subject: C=US, O=Google, OU=Enterprise, CN=verify.esodemoapp2.com
        Subject Public Key Info:
            Public Key Algorithm: rsaEncryption
                RSA Public-Key: (2048 bit)
                Modulus:
                    00:a5:fe:d3:3e:03:20:5f:ab:c4:eb:71:19:67:8b:
                    b8:76:a2:15:b3:e2:05:59:2d:64:26:5a:34:cb:2f:
                    7c:e5:04:1f:5a:35:27:06:ff:78:d5:d9:55:93:69:
                    df:c6:ec:8a:90:ae:4d:b3:13:bb:21:8a:06:65:5c:
                    36:6a:d6:6c:d8:52:e8:b8:37:4a:66:8a:75:44:22:
                    b3:1e:58:9b:b9:20:cb:34:eb:21:f1:98:1b:57:57:
                    0d:77:87:4a:84:1d:a2:99:f8:a9:e0:9d:1a:78:cb:
                    ef:e2:88:7d:0d:8e:1e:9c:63:d7:b2:6e:7c:29:b5:
                    4b:57:dd:8e:99:42:cd:a5:12:e2:e7:f8:e6:6e:89:
                    4c:fd:b7:f0:dd:1b:67:da:ce:37:0c:d7:9f:16:b4:
                    ee:59:cf:9e:73:78:15:3b:7a:ab:12:e5:90:b4:bf:
                    df:ce:32:f3:9f:ef:66:98:a4:e9:55:6e:56:25:cf:
                    f6:46:d5:7d:46:47:97:64:52:bc:44:ae:9a:74:9b:
                    f6:da:75:59:22:1e:37:01:49:67:22:c6:4b:03:97:
                    af:78:c8:82:bb:e8:33:bc:7a:1d:4c:f7:b7:f7:2a:
                    11:eb:6f:60:17:3b:c9:4c:54:67:4c:65:f5:e7:44:
                    54:01:b5:1c:f6:74:cd:f4:33:a1:93:cd:4f:9e:d5:
                    4f:c9
                Exponent: 65537 (0x10001)
        X509v3 extensions:
            X509v3 Key Usage: critical
                Digital Signature
            X509v3 Basic Constraints: 
                CA:FALSE
            X509v3 Extended Key Usage: 
                TLS Web Server Authentication
            X509v3 Subject Key Identifier: 
                78:F9:56:F1:C3:CB:72:91:B9:15:37:62:0D:5E:7D:9B:EF:16:7A:98
            X509v3 Authority Key Identifier: 
                keyid:BF:E1:1C:F0:22:48:8F:FC:3B:CF:5D:D9:ED:AE:88:70:21:DF:DD:86

            Authority Information Access: 
                CA Issuers - URI:http://pki.esodemoapp2.com/ca/tls-ca.cer

            X509v3 CRL Distribution Points: 

                Full Name:
                  URI:http://pki.esodemoapp2.com/ca/tls-ca.crl

            X509v3 Subject Alternative Name: 
                DNS:verify.esodemoapp2.com
    Signature Algorithm: sha1WithRSAEncryption
         7f:97:80:0c:09:ab:a6:3b:69:4c:5b:c5:5e:54:dc:bb:36:36:
         65:1b:78:ec:ca:69:0d:99:ff:b4:e4:46:31:fb:da:2e:a3:a7:
         f6:e5:d2:d5:9b:1e:b0:47:34:0f:34:71:8f:a9:3b:f8:49:9f:
         6c:42:a0:b1:d8:41:e8:f1:fd:b3:a8:36:03:e8:0a:5f:2b:77:
         33:1c:41:0b:96:f6:ce:14:2d:4a:bf:03:00:62:f0:c5:eb:39:
         bd:3c:f8:7e:63:34:a5:df:df:50:81:42:29:ed:2a:ba:38:60:
         64:da:3a:56:8f:07:e9:09:9e:dd:b1:5e:da:b0:e9:01:29:0f:
         9e:40:d7:51:31:5c:88:46:da:ea:42:21:3b:de:76:75:69:a2:
         b1:89:d4:99:b6:9d:a8:4a:28:5c:45:e4:1b:cd:44:cb:41:1c:
         cf:28:9c:bc:5a:c1:a6:71:f7:0b:fe:51:36:74:c1:fc:1d:5f:
         90:7b:56:59:b2:60:64:e1:f0:23:53:fb:f8:23:41:76:bb:03:
         91:77:56:53:4e:a6:99:c9:20:c0:7a:c4:5f:2a:62:1c:47:05:
         19:a9:96:8f:47:10:0a:0f:cf:fb:84:2b:38:9e:6f:da:99:0b:
         44:79:65:4b:9b:e6:0a:4a:44:e1:dc:0e:4f:76:b7:b5:8d:63:
         82:2b:7d:0d
-----BEGIN CERTIFICATE-----
MIIEQDCCAyigAwIBAgIBOTANBgkqhkiG9w0BAQUFADBXMQswCQYDVQQGEwJVUzEP
MA0GA1UECgwGR29vZ2xlMRMwEQYDVQQLDApFbnRlcnByaXNlMSIwIAYDVQQDDBlF
bnRlcnByaXNlIFN1Ym9yZGluYXRlIENBMB4XDTIxMTAyNzAxMzczMloXDTI3MDQx
OTAxMzczMlowVDELMAkGA1UEBhMCVVMxDzANBgNVBAoMBkdvb2dsZTETMBEGA1UE
CwwKRW50ZXJwcmlzZTEfMB0GA1UEAwwWdmVyaWZ5LmVzb2RlbW9hcHAyLmNvbTCC
ASIwDQYJKoZIhvcNAQEBBQADggEPADCCAQoCggEBAKX+0z4DIF+rxOtxGWeLuHai
FbPiBVktZCZaNMsvfOUEH1o1Jwb/eNXZVZNp38bsipCuTbMTuyGKBmVcNmrWbNhS
6Lg3SmaKdUQisx5Ym7kgyzTrIfGYG1dXDXeHSoQdopn4qeCdGnjL7+KIfQ2OHpxj
17JufCm1S1fdjplCzaUS4uf45m6JTP238N0bZ9rONwzXnxa07lnPnnN4FTt6qxLl
kLS/384y85/vZpik6VVuViXP9kbVfUZHl2RSvESumnSb9tp1WSIeNwFJZyLGSwOX
r3jIgrvoM7x6HUz3t/cqEetvYBc7yUxUZ0xl9edEVAG1HPZ0zfQzoZPNT57VT8kC
AwEAAaOCARgwggEUMA4GA1UdDwEB/wQEAwIHgDAJBgNVHRMEAjAAMBMGA1UdJQQM
MAoGCCsGAQUFBwMBMB0GA1UdDgQWBBR4+Vbxw8tykbkVN2INXn2b7xZ6mDAfBgNV
HSMEGDAWgBS/4RzwIkiP/DvPXdntrohwId/dhjBEBggrBgEFBQcBAQQ4MDYwNAYI
KwYBBQUHMAKGKGh0dHA6Ly9wa2kuZXNvZGVtb2FwcDIuY29tL2NhL3Rscy1jYS5j
ZXIwOQYDVR0fBDIwMDAuoCygKoYoaHR0cDovL3BraS5lc29kZW1vYXBwMi5jb20v
Y2EvdGxzLWNhLmNybDAhBgNVHREEGjAYghZ2ZXJpZnkuZXNvZGVtb2FwcDIuY29t
MA0GCSqGSIb3DQEBBQUAA4IBAQB/l4AMCaumO2lMW8VeVNy7NjZlG3jsymkNmf+0
5EYx+9ouo6f25dLVmx6wRzQPNHGPqTv4SZ9sQqCx2EHo8f2zqDYD6ApfK3czHEEL
lvbOFC1KvwMAYvDF6zm9PPh+YzSl399QgUIp7Sq6OGBk2jpWjwfpCZ7dsV7asOkB
KQ+eQNdRMVyIRtrqQiE73nZ1aaKxidSZtp2oSihcReQbzUTLQRzPKJy8WsGmcfcL
/lE2dMH8HV+Qe1ZZsmBk4fAjU/v4I0F2uwORd1ZTTqaZySDAesRfKmIcRwUZqZaP
RxAKD8/7hCs4nm/amQtEeWVLm+YKSkTh3A5Pdre1jWOCK30N
-----END CERTIFICATE-----
