Certificate:
    Data:
        Version: 3 (0x2)
        Serial Number: 37 (0x25)
        Signature Algorithm: sha256WithRSAEncryption
        Issuer: C=US, O=Google, OU=Enterprise, CN=Enterprise Subordinate CA
        Validity
            Not Before: Sep 11 12:43:59 2022 GMT
            Not After : Dec 19 12:43:59 2024 GMT
        Subject: C=US, O=Google, OU=Enterprise, CN=tpmsigner@domain.com
        Subject Public Key Info:
            Public Key Algorithm: rsaEncryption
                Public-Key: (2048 bit)
                Modulus:
                    00:fb:06:4e:d7:b6:e3:24:df:2a:31:46:f0:1d:1b:
                    80:28:0b:03:02:58:32:39:b4:8d:f8:8f:f1:80:27:
                    e3:f3:94:6c:97:3b:bc:a5:2a:9a:f7:44:f0:c2:93:
                    f1:df:4d:28:f5:06:9b:1e:90:fa:72:56:99:3d:62:
                    40:99:17:fa:79:08:55:aa:12:76:96:62:53:cb:02:
                    c9:21:e0:d3:90:39:d0:8b:fe:0d:92:16:bb:83:fa:
                    28:61:86:ed:5e:5f:71:3d:d1:0f:66:0a:77:c4:b4:
                    3c:ad:f7:dd:d1:e5:22:ed:07:18:15:11:19:85:42:
                    ce:26:3d:e1:74:d7:96:10:66:13:79:14:b3:77:4a:
                    a9:bd:3c:86:c3:31:10:9a:a9:aa:f8:f3:2f:85:c3:
                    89:f5:36:54:13:91:9b:6f:72:8c:75:de:36:c8:6f:
                    0a:44:60:1f:af:b6:69:c8:bf:39:4e:66:6f:fc:89:
                    c3:b1:1a:d4:a7:a6:a4:62:0c:2b:22:ca:2b:68:a7:
                    31:4b:dc:fa:b5:2a:c2:af:09:7b:b1:da:ad:97:4c:
                    61:82:f2:4b:39:99:ea:00:4e:a2:a6:ad:66:9b:1e:
                    a8:09:32:d9:4a:5f:68:69:c8:35:89:06:03:c9:50:
                    33:e9:48:d2:20:eb:ff:ec:47:60:dc:92:4d:01:5b:
                    37:5f
                Exponent: 65537 (0x10001)
        X509v3 extensions:
            X509v3 Key Usage: critical
                Digital Signature
            X509v3 Basic Constraints: 
                CA:FALSE
            X509v3 Extended Key Usage: 
                Code Signing
            X509v3 Subject Key Identifier: 
                62:01:39:C9:FD:44:6E:69:8E:90:41:DC:14:AA:FC:CB:98:79:8D:87
            X509v3 Authority Key Identifier: 
                B7:BA:B0:02:A1:E7:BE:34:C6:C1:05:5C:66:78:E5:BB:53:5D:A1:54
            Authority Information Access: 
                CA Issuers - URI:http://pki.esodemoapp2.com/ca/tls-ca.cer
            X509v3 CRL Distribution Points: 
                Full Name:
                  URI:http://pki.esodemoapp2.com/ca/tls-ca.crl
    Signature Algorithm: sha256WithRSAEncryption
    Signature Value:
        2c:99:21:59:59:b6:30:b6:43:02:8d:76:ed:52:d6:81:cd:51:
        05:b4:cc:9d:b3:3b:46:12:90:cc:de:2c:0c:83:58:60:fb:03:
        98:da:eb:97:fe:50:1b:8a:92:66:a1:13:46:7e:ac:3b:d3:25:
        99:ba:1a:a3:b6:2b:23:05:0a:2b:98:45:63:01:d4:86:cd:13:
        b6:6a:2a:8d:ba:93:76:d3:4d:c2:de:22:22:15:45:35:fc:77:
        35:9a:fa:91:b1:a9:29:42:c1:39:ad:97:dc:15:1d:95:96:3a:
        66:39:9e:ea:73:ad:bc:37:0c:ce:b0:07:9f:51:4f:d1:62:95:
        b5:1a:a2:6e:69:0c:0d:76:20:5a:48:e5:7b:34:8c:ba:4d:50:
        24:a1:ac:e9:94:ab:2c:5e:f5:6c:54:7d:7e:12:83:48:33:77:
        24:25:a1:9c:06:c9:64:fc:82:44:0b:de:7d:cf:09:49:5c:e6:
        42:7e:d8:fa:19:51:c6:ff:81:d2:50:3e:9a:b4:1e:eb:73:e5:
        21:51:d5:aa:a8:59:82:76:05:d4:31:07:74:21:04:48:f4:b6:
        89:8c:a8:7a:dd:de:49:bc:01:a3:e6:de:08:46:eb:6a:53:ae:
        9c:29:80:d7:59:da:4a:88:20:9f:4f:e7:03:f2:76:be:fa:c6:
        4a:98:cf:44
-----BEGIN CERTIFICATE-----
MIIEGTCCAwGgAwIBAgIBJTANBgkqhkiG9w0BAQsFADBXMQswCQYDVQQGEwJVUzEP
MA0GA1UECgwGR29vZ2xlMRMwEQYDVQQLDApFbnRlcnByaXNlMSIwIAYDVQQDDBlF
bnRlcnByaXNlIFN1Ym9yZGluYXRlIENBMB4XDTIyMDkxMTEyNDM1OVoXDTI0MTIx
OTEyNDM1OVowUjELMAkGA1UEBhMCVVMxDzANBgNVBAoMBkdvb2dsZTETMBEGA1UE
CwwKRW50ZXJwcmlzZTEdMBsGA1UEAwwUdHBtc2lnbmVyQGRvbWFpbi5jb20wggEi
MA0GCSqGSIb3DQEBAQUAA4IBDwAwggEKAoIBAQD7Bk7XtuMk3yoxRvAdG4AoCwMC
WDI5tI34j/GAJ+PzlGyXO7ylKpr3RPDCk/HfTSj1BpsekPpyVpk9YkCZF/p5CFWq
EnaWYlPLAskh4NOQOdCL/g2SFruD+ihhhu1eX3E90Q9mCnfEtDyt993R5SLtBxgV
ERmFQs4mPeF015YQZhN5FLN3Sqm9PIbDMRCaqar48y+Fw4n1NlQTkZtvcox13jbI
bwpEYB+vtmnIvzlOZm/8icOxGtSnpqRiDCsiyitopzFL3Pq1KsKvCXux2q2XTGGC
8ks5meoATqKmrWabHqgJMtlKX2hpyDWJBgPJUDPpSNIg6//sR2Dckk0BWzdfAgMB
AAGjgfQwgfEwDgYDVR0PAQH/BAQDAgeAMAkGA1UdEwQCMAAwEwYDVR0lBAwwCgYI
KwYBBQUHAwMwHQYDVR0OBBYEFGIBOcn9RG5pjpBB3BSq/MuYeY2HMB8GA1UdIwQY
MBaAFLe6sAKh5740xsEFXGZ45btTXaFUMEQGCCsGAQUFBwEBBDgwNjA0BggrBgEF
BQcwAoYoaHR0cDovL3BraS5lc29kZW1vYXBwMi5jb20vY2EvdGxzLWNhLmNlcjA5
BgNVHR8EMjAwMC6gLKAqhihodHRwOi8vcGtpLmVzb2RlbW9hcHAyLmNvbS9jYS90
bHMtY2EuY3JsMA0GCSqGSIb3DQEBCwUAA4IBAQAsmSFZWbYwtkMCjXbtUtaBzVEF
tMydsztGEpDM3iwMg1hg+wOY2uuX/lAbipJmoRNGfqw70yWZuhqjtisjBQormEVj
AdSGzRO2aiqNupN2003C3iIiFUU1/Hc1mvqRsakpQsE5rZfcFR2VljpmOZ7qc628
NwzOsAefUU/RYpW1GqJuaQwNdiBaSOV7NIy6TVAkoazplKssXvVsVH1+EoNIM3ck
JaGcBslk/IJEC959zwlJXOZCftj6GVHG/4HSUD6atB7rc+UhUdWqqFmCdgXUMQd0
IQRI9LaJjKh63d5JvAGj5t4IRutqU66cKYDXWdpKiCCfT+cD8na++sZKmM9E
-----END CERTIFICATE-----
