Certificate:
    Data:
        Version: 3 (0x2)
        Serial Number:
            28:61:6e:77:89:7e:4e:66:bf:de:c7:f9:f1:03:13:ac
        Signature Algorithm: sha256WithRSAEncryption
        Issuer: C = US, ST = California, L = Mountain View, O = Google LLC, OU = Cloud, CN = "tpm_ek_v1_cloud_host_root-signer-0-2018-04-06T10:58:26-07:00 K:1, 1:Pw003HsFYO4:0:18"
        Validity
            Not Before: Oct 22 21:02:08 2020 GMT
            Not After : Oct 22 21:02:08 2120 GMT
        Subject: C = US, ST = California, L = Mountain View, O = Google LLC, OU = Cloud, CN = "tpm_ek_v1_cloud_host-signer-0-2020-10-22T14:02:08-07:00 K:1, 2:HBNpA3TPAbM:0:18"
        Subject Public Key Info:
            Public Key Algorithm: rsaEncryption
                RSA Public-Key: (2048 bit)
                Modulus:
                    00:b4:e0:32:2c:41:29:2b:6d:00:81:e3:fe:c4:57:
                    60:43:11:76:73:04:10:54:54:36:85:ff:2b:83:cf:
                    1c:dd:30:db:b1:91:d3:5b:07:f7:12:6c:a6:d2:73:
                    8f:a0:23:ee:0d:2c:89:ff:a9:90:37:ec:ac:d6:01:
                    df:0f:4a:f8:85:db:31:60:0b:e6:45:e2:6e:30:af:
                    b2:79:f3:7d:27:e0:e9:00:06:a7:dd:b4:fd:fa:f1:
                    13:88:d5:be:54:7b:56:af:ba:03:5f:78:75:08:d9:
                    3c:f5:60:87:e5:0e:55:e5:9e:8b:4d:31:3e:0e:e1:
                    22:0c:ba:0f:6c:7c:11:63:9f:02:0d:6e:2b:c3:bb:
                    78:14:3f:cd:37:bd:f5:c3:0a:c4:dc:9d:d2:80:ed:
                    68:0d:e6:35:c3:10:07:dd:3f:51:19:b6:e8:0e:0e:
                    c0:b1:4a:3b:dc:bd:e2:ab:df:43:91:98:28:3b:ef:
                    a3:7e:6e:df:90:f9:84:1e:43:11:71:58:5e:9e:20:
                    31:bc:bb:80:4f:93:da:7f:99:75:c8:7e:a4:0c:77:
                    e5:a9:ad:61:2d:d6:97:6f:40:55:11:a2:27:80:37:
                    68:71:12:4a:0b:f7:9f:68:16:2b:da:eb:db:c0:8d:
                    35:3c:1e:a6:80:6f:5e:ae:5a:15:92:41:ac:87:d2:
                    55:db
                Exponent: 65537 (0x10001)
        X509v3 extensions:
            X509v3 Key Usage: critical
                Certificate Sign, CRL Sign
            X509v3 Extended Key Usage: 
                2.23.133.8.1
            X509v3 Basic Constraints: critical
                CA:TRUE, pathlen:0
            X509v3 Subject Key Identifier: 
                13:CD:71:BA:58:B2:0A:51:A3:28:0E:65:B9:96:9E:BB:1D:0D:11:93
            X509v3 Authority Key Identifier: 
                keyid:65:F4:E4:E6:AA:F6:FD:5A:D2:88:9C:A8:53:55:F7:00:8E:08:F7:A5

            Authority Information Access: 
                CA Issuers - URI:http://pki.goog/cloud_integrity/tpm_ek_root_1.crt

            X509v3 CRL Distribution Points: 

                Full Name:
                  URI:http://pki.goog/cloud_integrity/tpm_ek_root_1.crl

    Signature Algorithm: sha256WithRSAEncryption
         90:f3:d6:8c:db:df:a1:a1:36:47:1f:97:3e:fb:a8:d5:d6:fc:
         8e:93:a8:13:7b:55:43:09:cb:9c:d5:5f:12:31:2c:70:da:c9:
         4e:a6:24:68:b3:ae:24:24:9d:c0:e6:9d:66:3c:fc:d5:20:ae:
         85:ca:23:25:11:06:c0:76:b0:d2:38:d4:a7:10:16:2f:92:71:
         84:46:2a:e1:a4:88:bb:7f:d2:1b:b1:03:49:e3:08:b2:0e:c8:
         07:03:37:aa:1a:a6:1f:04:a3:ba:c2:2f:93:1d:84:0f:6e:33:
         19:c7:32:05:95:5a:39:e9:81:82:95:32:e8:ba:95:a9:04:72:
         97:a4:da:78:0d:32:94:87:7b:b5:71:98:cd:8b:ff:9e:ae:71:
         06:e5:bc:89:9a:d3:40:0d:0b:a3:40:8b:e4:0e:16:ec:a8:aa:
         b9:99:85:78:e3:d3:0f:e9:db:23:b9:5b:7f:23:a7:fb:5c:3d:
         7d:fc:15:9e:ae:66:90:f7:89:80:1f:06:04:5c:e3:2a:ef:50:
         5e:09:d9:45:25:17:7c:41:2f:4b:90:23:71:bd:ea:e8:74:39:
         c0:73:00:0e:0a:14:c4:41:7e:c6:51:e2:b7:e0:6c:08:42:46:
         af:cb:67:43:40:22:16:fd:9d:d3:a4:1d:89:74:ff:a4:f2:40:
         5a:92:b7:be:ef:f0:4f:b0:da:6c:33:02:c6:29:fe:30:00:bb:
         b2:05:f2:cd:16:31:c6:4f:4c:12:a0:32:4f:62:46:85:51:01:
         4e:eb:ea:c2:5c:a9:f8:6e:9b:1e:e8:f0:7e:7b:93:ef:74:6e:
         90:19:8d:9b:01:1c:b8:ff:39:61:50:0c:ae:93:06:bc:4b:f6:
         45:ed:67:c7:8b:e9:cf:8c:ee:8e:4c:c7:79:82:ce:a8:e3:a7:
         97:c4:7b:f2:b9:0e:bd:8d:87:37:14:df:54:d3:19:d4:73:ff:
         6b:7b:78:53:23:3f:5c:a5:b0:d0:97:48:73:41:ef:2a:00:d6:
         85:1c:58:aa:3a:9e:e8:ad:50:fc:4b:8e:28:af:8f:a7:2f:84:
         c3:ec:24:b4:69:30:94:0d:ef:c9:36:54:5e:e8:b2:b8:bb:de:
         5d:43:7f:6d:84:2e:45:b3:ea:db:ef:6f:a3:ba:0e:1d:df:58:
         27:8a:3f:bd:77:07:ff:89:46:fe:17:27:5d:30:3c:bd:52:b5:
         10:c4:f2:f9:7f:9a:2f:a1:c9:cf:dc:ed:01:9e:b9:1a:18:76:
         62:ae:e7:1b:62:f4:8c:6d:6b:16:5a:64:9a:82:5e:6e:02:ec:
         17:52:eb:0e:db:51:ae:93:ea:c9:b2:2a:95:dc:2f:88:97:fe:
         fc:76:bf:b6:26:eb:b0:06
-----BEGIN CERTIFICATE-----
MIIGFDCCA/ygAwIBAgIQKGFud4l+Tma/3sf58QMTrDANBgkqhkiG9w0BAQsFADCB
vjELMAkGA1UEBhMCVVMxEzARBgNVBAgTCkNhbGlmb3JuaWExFjAUBgNVBAcTDU1v
dW50YWluIFZpZXcxEzARBgNVBAoTCkdvb2dsZSBMTEMxDjAMBgNVBAsTBUNsb3Vk
MV0wWwYDVQQDDFR0cG1fZWtfdjFfY2xvdWRfaG9zdF9yb290LXNpZ25lci0wLTIw
MTgtMDQtMDZUMTA6NTg6MjYtMDc6MDAgSzoxLCAxOlB3MDAzSHNGWU80OjA6MTgw
IBcNMjAxMDIyMjEwMjA4WhgPMjEyMDEwMjIyMTAyMDhaMIG5MQswCQYDVQQGEwJV
UzETMBEGA1UECBMKQ2FsaWZvcm5pYTEWMBQGA1UEBxMNTW91bnRhaW4gVmlldzET
MBEGA1UEChMKR29vZ2xlIExMQzEOMAwGA1UECxMFQ2xvdWQxWDBWBgNVBAMMT3Rw
bV9la192MV9jbG91ZF9ob3N0LXNpZ25lci0wLTIwMjAtMTAtMjJUMTQ6MDI6MDgt
MDc6MDAgSzoxLCAyOkhCTnBBM1RQQWJNOjA6MTgwggEiMA0GCSqGSIb3DQEBAQUA
A4IBDwAwggEKAoIBAQC04DIsQSkrbQCB4/7EV2BDEXZzBBBUVDaF/yuDzxzdMNux
kdNbB/cSbKbSc4+gI+4NLIn/qZA37KzWAd8PSviF2zFgC+ZF4m4wr7J5830n4OkA
BqfdtP368ROI1b5Ue1avugNfeHUI2Tz1YIflDlXlnotNMT4O4SIMug9sfBFjnwIN
bivDu3gUP803vfXDCsTcndKA7WgN5jXDEAfdP1EZtugODsCxSjvcveKr30ORmCg7
76N+bt+Q+YQeQxFxWF6eIDG8u4BPk9p/mXXIfqQMd+WprWEt1pdvQFURoieAN2hx
EkoL959oFiva69vAjTU8HqaAb16uWhWSQayH0lXbAgMBAAGjggENMIIBCTAOBgNV
HQ8BAf8EBAMCAQYwEAYDVR0lBAkwBwYFZ4EFCAEwEgYDVR0TAQH/BAgwBgEB/wIB
ADAdBgNVHQ4EFgQUE81xuliyClGjKA5luZaeux0NEZMwHwYDVR0jBBgwFoAUZfTk
5qr2/VrSiJyoU1X3AI4I96UwTQYIKwYBBQUHAQEEQTA/MD0GCCsGAQUFBzAChjFo
dHRwOi8vcGtpLmdvb2cvY2xvdWRfaW50ZWdyaXR5L3RwbV9la19yb290XzEuY3J0
MEIGA1UdHwQ7MDkwN6A1oDOGMWh0dHA6Ly9wa2kuZ29vZy9jbG91ZF9pbnRlZ3Jp
dHkvdHBtX2VrX3Jvb3RfMS5jcmwwDQYJKoZIhvcNAQELBQADggIBAJDz1ozb36Gh
Nkcflz77qNXW/I6TqBN7VUMJy5zVXxIxLHDayU6mJGizriQkncDmnWY8/NUgroXK
IyURBsB2sNI41KcQFi+ScYRGKuGkiLt/0huxA0njCLIOyAcDN6oaph8Eo7rCL5Md
hA9uMxnHMgWVWjnpgYKVMui6lakEcpek2ngNMpSHe7VxmM2L/56ucQblvIma00AN
C6NAi+QOFuyoqrmZhXjj0w/p2yO5W38jp/tcPX38FZ6uZpD3iYAfBgRc4yrvUF4J
2UUlF3xBL0uQI3G96uh0OcBzAA4KFMRBfsZR4rfgbAhCRq/LZ0NAIhb9ndOkHYl0
/6TyQFqSt77v8E+w2mwzAsYp/jAAu7IF8s0WMcZPTBKgMk9iRoVRAU7r6sJcqfhu
mx7o8H57k+90bpAZjZsBHLj/OWFQDK6TBrxL9kXtZ8eL6c+M7o5Mx3mCzqjjp5fE
e/K5Dr2NhzcU31TTGdRz/2t7eFMjP1ylsNCXSHNB7yoA1oUcWKo6nuitUPxLjiiv
j6cvhMPsJLRpMJQN78k2VF7osri73l1Df22ELkWz6tvvb6O6Dh3fWCeKP713B/+J
Rv4XJ10wPL1StRDE8vl/mi+hyc/c7QGeuRoYdmKu5xti9IxtaxZaZJqCXm4C7BdS
6w7bUa6T6smyKpXcL4iX/vx2v7Ym67AG
-----END CERTIFICATE-----
